/*
 * Intel ACPI Component Architecture
 * AML/ASL+ Disassembler version 20251212 (64-bit version)
 * Copyright (c) 2000 - 2025 Intel Corporation
 * 
 * Disassembly of MSDM.aml
 *
 * ACPI Data Table [MSDM]
 *
 * Format: [HexOffset DecimalOffset ByteLength]  FieldName : FieldValue (in hex)
 */

[000h 0000 004h]                   Signature : "MSDM"    [Microsoft Data Management Table]
[004h 0004 004h]                Table Length : 00000055
[008h 0008 001h]                    Revision : 03
[009h 0009 001h]                    Checksum : 68
[00Ah 0010 006h]                      Oem ID : "HONOR"
[010h 0016 008h]                Oem Table ID : "PTL"
[018h 0024 004h]                Oem Revision : 00000002
[01Ch 0028 004h]             Asl Compiler ID : "ACPI"
[020h 0032 004h]       Asl Compiler Revision : 00040000

[024h 0036 031h] Software Licensing Structure : 01 00 00 00 00 00 00 00 01 00 00 00 00 00 00 00 /* ................ */\
/* 034h 0052  16 */                            1D 00 00 00 39 51 42 46 56 2D 4E 32 47 37 58 2D /* ....9QBFV-N2G7X- */\
/* 044h 0068  16 */                            54 34 39 34 48 2D 58 59 32 4D 34 2D 37 48 37 43 /* T494H-XY2M4-7H7C */\
/* 054h 0084   1 */                            4B                                              /* K */\

Raw Table Data: Length 85 (0x55)

    0000: 4D 53 44 4D 55 00 00 00 03 68 48 4F 4E 4F 52 00  // MSDMU....hHONOR.
    0010: 50 54 4C 00 00 00 00 00 02 00 00 00 41 43 50 49  // PTL.........ACPI
    0020: 00 00 04 00 01 00 00 00 00 00 00 00 01 00 00 00  // ................
    0030: 00 00 00 00 1D 00 00 00 39 51 42 46 56 2D 4E 32  // ........9QBFV-N2
    0040: 47 37 58 2D 54 34 39 34 48 2D 58 59 32 4D 34 2D  // G7X-T494H-XY2M4-
    0050: 37 48 37 43 4B                                   // 7H7CK
